target datalayout = "e-m:e-p270:32:32-p271:32:32-p272:64:64-i64:64-i128:128-f80:128-n8:16:32:64-S128"
target triple = "x86_64-pc-linux-gnu"

%"class.boost::core::basic_string_view" = type { ptr, i64 }
%"class.boost::urls::pct_string_view" = type { %"class.boost::urls::grammar::string_view_base", i64 }
%"class.boost::urls::grammar::string_view_base" = type { %"class.boost::core::basic_string_view" }
%"struct.boost::urls::detail::segments_iter_impl" = type { [8 x i8], %"class.boost::urls::detail::path_ref", i64, i64, i64, i64, %"class.boost::urls::pct_string_view" }
%"class.boost::urls::detail::path_ref" = type { ptr, ptr, i64, i64, i64 }

; Function Attrs: mustprogress nounwind uwtable
define linkonce_odr hidden void @_ZN5boost4core17basic_string_viewIcEC2EPKcm(ptr noundef nonnull align 8 dereferenceable(16) %0, ptr noundef %1, i64 noundef %2) unnamed_addr #2 comdat align 2 {
  %4 = alloca ptr, align 8
  %5 = alloca ptr, align 8
  %6 = alloca i64, align 8
  store ptr %0, ptr %4, align 8, !tbaa !3
  store ptr %1, ptr %5, align 8, !tbaa !3
  store i64 %2, ptr %6, align 8, !tbaa !19
  %7 = load ptr, ptr %4, align 8
  %8 = getelementptr inbounds nuw %"class.boost::core::basic_string_view", ptr %7, i32 0, i32 0
  %9 = load ptr, ptr %5, align 8, !tbaa !3
  store ptr %9, ptr %8, align 8, !tbaa !27
  %10 = getelementptr inbounds nuw %"class.boost::core::basic_string_view", ptr %7, i32 0, i32 1
  %11 = load i64, ptr %6, align 8, !tbaa !19
  store i64 %11, ptr %10, align 8, !tbaa !28
  ret void
}

; Function Attrs: mustprogress nounwind uwtable
define linkonce_odr hidden void @_ZN5boost4urls7grammar16string_view_baseC2EPKcm(ptr noundef nonnull align 8 dereferenceable(16) %0, ptr noundef %1, i64 noundef %2) unnamed_addr #2 comdat align 2 {
  %4 = alloca ptr, align 8
  %5 = alloca ptr, align 8
  %6 = alloca i64, align 8
  store ptr %0, ptr %4, align 8, !tbaa !3
  store ptr %1, ptr %5, align 8, !tbaa !3
  store i64 %2, ptr %6, align 8, !tbaa !19
  %7 = load ptr, ptr %4, align 8
  %8 = getelementptr inbounds nuw %"class.boost::urls::grammar::string_view_base", ptr %7, i32 0, i32 0
  %9 = load ptr, ptr %5, align 8, !tbaa !3
  %10 = load i64, ptr %6, align 8, !tbaa !19
  call void @_ZN5boost4core17basic_string_viewIcEC2EPKcm(ptr noundef nonnull align 8 dereferenceable(16) %8, ptr noundef %9, i64 noundef %10) #7
  ret void
}

; Function Attrs: mustprogress nounwind uwtable
define linkonce_odr hidden void @_ZN5boost4urls15pct_string_viewC2EPKcmm(ptr noundef nonnull align 8 dereferenceable(24) %0, ptr noundef %1, i64 noundef %2, i64 noundef %3) unnamed_addr #2 comdat align 2 {
  %5 = alloca ptr, align 8
  %6 = alloca ptr, align 8
  %7 = alloca i64, align 8
  %8 = alloca i64, align 8
  store ptr %0, ptr %5, align 8, !tbaa !3
  store ptr %1, ptr %6, align 8, !tbaa !3
  store i64 %2, ptr %7, align 8, !tbaa !19
  store i64 %3, ptr %8, align 8, !tbaa !19
  %9 = load ptr, ptr %5, align 8
  %10 = load ptr, ptr %6, align 8, !tbaa !3
  %11 = load i64, ptr %7, align 8, !tbaa !19
  call void @_ZN5boost4urls7grammar16string_view_baseC2EPKcm(ptr noundef nonnull align 8 dereferenceable(16) %9, ptr noundef %10, i64 noundef %11) #7
  %12 = getelementptr inbounds nuw %"class.boost::urls::pct_string_view", ptr %9, i32 0, i32 1
  %13 = load i64, ptr %8, align 8, !tbaa !19
  store i64 %13, ptr %12, align 8, !tbaa !17
  ret void
}

; Function Attrs: inlinehint mustprogress nounwind uwtable
define linkonce_odr hidden void @_ZN5boost4urls27make_pct_string_view_unsafeEPKcmm(ptr dead_on_unwind noalias writable sret(%"class.boost::urls::pct_string_view") align 8 %0, ptr noundef %1, i64 noundef %2, i64 noundef %3) #4 comdat {
  %5 = alloca ptr, align 8
  %6 = alloca i64, align 8
  %7 = alloca i64, align 8
  store ptr %1, ptr %5, align 8, !tbaa !3
  store i64 %2, ptr %6, align 8, !tbaa !19
  store i64 %3, ptr %7, align 8, !tbaa !19
  %8 = load ptr, ptr %5, align 8, !tbaa !3
  %9 = load i64, ptr %6, align 8, !tbaa !19
  %10 = load i64, ptr %7, align 8, !tbaa !19
  call void @_ZN5boost4urls15pct_string_viewC2EPKcmm(ptr noundef nonnull align 8 dereferenceable(24) %0, ptr noundef %8, i64 noundef %9, i64 noundef %10) #7
  ret void
}

; Function Attrs: mustprogress nounwind uwtable
define void @_ZN5boost4urls6detail18segments_iter_impl9incrementEv(ptr noundef nonnull align 8 dereferenceable(104) %0) #2 align 2 {
  %2 = alloca ptr, align 8
  %3 = alloca ptr, align 8
  %4 = alloca ptr, align 8
  %5 = alloca ptr, align 8
  %6 = alloca %"class.boost::urls::pct_string_view", align 8
  store ptr %0, ptr %2, align 8, !tbaa !3
  %7 = load ptr, ptr %2, align 8
  %8 = getelementptr inbounds nuw %"struct.boost::urls::detail::segments_iter_impl", ptr %7, i32 0, i32 4
  %9 = load i64, ptr %8, align 8, !tbaa !15
  %10 = add i64 %9, 1
  store i64 %10, ptr %8, align 8, !tbaa !15
  %11 = getelementptr inbounds nuw %"struct.boost::urls::detail::segments_iter_impl", ptr %7, i32 0, i32 3
  %12 = load i64, ptr %11, align 8, !tbaa !14
  %13 = getelementptr inbounds nuw %"struct.boost::urls::detail::segments_iter_impl", ptr %7, i32 0, i32 2
  store i64 %12, ptr %13, align 8, !tbaa !7
  %14 = getelementptr inbounds nuw %"struct.boost::urls::detail::segments_iter_impl", ptr %7, i32 0, i32 4
  %15 = load i64, ptr %14, align 8, !tbaa !15
  %16 = getelementptr inbounds nuw %"struct.boost::urls::detail::segments_iter_impl", ptr %7, i32 0, i32 1
  %17 = call noundef i64 @_ZNK5boost4urls6detail8path_ref4nsegEv(ptr noundef nonnull align 8 dereferenceable(40) %16) #7
  %18 = icmp eq i64 %15, %17
  br i1 %18, label %19, label %20

19:                                               ; preds = %1
  br label %82

20:                                               ; preds = %1
  call void @llvm.lifetime.start.p0(i64 8, ptr %3) #7
  %21 = getelementptr inbounds nuw %"struct.boost::urls::detail::segments_iter_impl", ptr %7, i32 0, i32 1
  %22 = call noundef ptr @_ZNK5boost4urls6detail8path_ref3endEv(ptr noundef nonnull align 8 dereferenceable(40) %21) #7
  store ptr %22, ptr %3, align 8, !tbaa !3
  call void @llvm.lifetime.start.p0(i64 8, ptr %4) #7
  %23 = getelementptr inbounds nuw %"struct.boost::urls::detail::segments_iter_impl", ptr %7, i32 0, i32 1
  %24 = call noundef ptr @_ZNK5boost4urls6detail8path_ref4dataEv(ptr noundef nonnull align 8 dereferenceable(40) %23) #7
  %25 = getelementptr inbounds nuw %"struct.boost::urls::detail::segments_iter_impl", ptr %7, i32 0, i32 2
  %26 = load i64, ptr %25, align 8, !tbaa !7
  %27 = getelementptr inbounds nuw i8, ptr %24, i64 %26
  store ptr %27, ptr %4, align 8, !tbaa !3
  %28 = getelementptr inbounds nuw %"struct.boost::urls::detail::segments_iter_impl", ptr %7, i32 0, i32 5
  store i64 0, ptr %28, align 8, !tbaa !16
  %29 = load ptr, ptr %4, align 8, !tbaa !3
  %30 = getelementptr inbounds nuw i8, ptr %29, i32 1
  store ptr %30, ptr %4, align 8, !tbaa !3
  call void @llvm.lifetime.start.p0(i64 8, ptr %5) #7
  %31 = load ptr, ptr %4, align 8, !tbaa !3
  store ptr %31, ptr %5, align 8, !tbaa !3
  br label %32

32:                                               ; preds = %50, %47, %20
  %33 = load ptr, ptr %4, align 8, !tbaa !3
  %34 = load ptr, ptr %3, align 8, !tbaa !3
  %35 = icmp ne ptr %33, %34
  br i1 %35, label %36, label %56

36:                                               ; preds = %32
  %37 = load ptr, ptr %4, align 8, !tbaa !3
  %38 = load i8, ptr %37, align 1, !tbaa !20
  %39 = sext i8 %38 to i32
  %40 = icmp eq i32 %39, 47
  br i1 %40, label %41, label %42

41:                                               ; preds = %36
  br label %56

42:                                               ; preds = %36
  %43 = load ptr, ptr %4, align 8, !tbaa !3
  %44 = load i8, ptr %43, align 1, !tbaa !20
  %45 = sext i8 %44 to i32
  %46 = icmp ne i32 %45, 37
  br i1 %46, label %47, label %50

47:                                               ; preds = %42
  %48 = load ptr, ptr %4, align 8, !tbaa !3
  %49 = getelementptr inbounds nuw i8, ptr %48, i32 1
  store ptr %49, ptr %4, align 8, !tbaa !3
  br label %32, !llvm.loop !25

50:                                               ; preds = %42
  %51 = load ptr, ptr %4, align 8, !tbaa !3
  %52 = getelementptr inbounds i8, ptr %51, i64 3
  store ptr %52, ptr %4, align 8, !tbaa !3
  %53 = getelementptr inbounds nuw %"struct.boost::urls::detail::segments_iter_impl", ptr %7, i32 0, i32 5
  %54 = load i64, ptr %53, align 8, !tbaa !16
  %55 = add i64 %54, 2
  store i64 %55, ptr %53, align 8, !tbaa !16
  br label %32, !llvm.loop !25

56:                                               ; preds = %41, %32
  %57 = load ptr, ptr %4, align 8, !tbaa !3
  %58 = getelementptr inbounds nuw %"struct.boost::urls::detail::segments_iter_impl", ptr %7, i32 0, i32 1
  %59 = call noundef ptr @_ZNK5boost4urls6detail8path_ref4dataEv(ptr noundef nonnull align 8 dereferenceable(40) %58) #7
  %60 = ptrtoint ptr %57 to i64
  %61 = ptrtoint ptr %59 to i64
  %62 = sub i64 %60, %61
  %63 = getelementptr inbounds nuw %"struct.boost::urls::detail::segments_iter_impl", ptr %7, i32 0, i32 3
  store i64 %62, ptr %63, align 8, !tbaa !14
  %64 = load ptr, ptr %4, align 8, !tbaa !3
  %65 = load ptr, ptr %5, align 8, !tbaa !3
  %66 = ptrtoint ptr %64 to i64
  %67 = ptrtoint ptr %65 to i64
  %68 = sub i64 %66, %67
  %69 = getelementptr inbounds nuw %"struct.boost::urls::detail::segments_iter_impl", ptr %7, i32 0, i32 5
  %70 = load i64, ptr %69, align 8, !tbaa !16
  %71 = sub i64 %68, %70
  %72 = getelementptr inbounds nuw %"struct.boost::urls::detail::segments_iter_impl", ptr %7, i32 0, i32 5
  store i64 %71, ptr %72, align 8, !tbaa !16
  call void @llvm.lifetime.start.p0(i64 24, ptr %6) #7
  %73 = load ptr, ptr %5, align 8, !tbaa !3
  %74 = load ptr, ptr %4, align 8, !tbaa !3
  %75 = load ptr, ptr %5, align 8, !tbaa !3
  %76 = ptrtoint ptr %74 to i64
  %77 = ptrtoint ptr %75 to i64
  %78 = sub i64 %76, %77
  %79 = getelementptr inbounds nuw %"struct.boost::urls::detail::segments_iter_impl", ptr %7, i32 0, i32 5
  %80 = load i64, ptr %79, align 8, !tbaa !16
  call void @_ZN5boost4urls27make_pct_string_view_unsafeEPKcmm(ptr dead_on_unwind writable sret(%"class.boost::urls::pct_string_view") align 8 %6, ptr noundef %73, i64 noundef %78, i64 noundef %80) #7
  %81 = getelementptr inbounds nuw %"struct.boost::urls::detail::segments_iter_impl", ptr %7, i32 0, i32 6
  call void @llvm.memcpy.p0.p0.i64(ptr align 8 %81, ptr align 8 %6, i64 24, i1 false)
  call void @llvm.lifetime.end.p0(i64 24, ptr %6) #7
  call void @llvm.lifetime.end.p0(i64 8, ptr %5) #7
  call void @llvm.lifetime.end.p0(i64 8, ptr %4) #7
  call void @llvm.lifetime.end.p0(i64 8, ptr %3) #7
  br label %82

82:                                               ; preds = %56, %19
  ret void
}