; Function Attrs: mustprogress nounwind uwtable
define void @_ZN5boost4urls6detail18segments_iter_impl9incrementEv(ptr noundef nonnull align 8 dereferenceable(104) %0) local_unnamed_addr #3 align 2 {
  %2 = getelementptr inbounds nuw i8, ptr %0, i64 64
  %3 = load i64, ptr %2, align 8, !tbaa !20
  %4 = add i64 %3, 1
  store i64 %4, ptr %2, align 8, !tbaa !20
  %5 = getelementptr inbounds nuw i8, ptr %0, i64 56
  %6 = load i64, ptr %5, align 8, !tbaa !19
  %7 = getelementptr inbounds nuw i8, ptr %0, i64 48
  store i64 %6, ptr %7, align 8, !tbaa !10
  %8 = getelementptr inbounds nuw i8, ptr %0, i64 8
  %9 = tail call noundef i64 @_ZNK5boost4urls6detail8path_ref4nsegEv(ptr noundef nonnull align 8 dereferenceable(40) %8) #8
  %10 = icmp eq i64 %4, %9
  br i1 %10, label %35, label %11

11:                                               ; preds = %1
  %12 = tail call noundef ptr @_ZNK5boost4urls6detail8path_ref3endEv(ptr noundef nonnull align 8 dereferenceable(40) %8) #8
  %13 = tail call noundef ptr @_ZNK5boost4urls6detail8path_ref4dataEv(ptr noundef nonnull align 8 dereferenceable(40) %8) #8
  %14 = load i64, ptr %7, align 8, !tbaa !10
  %15 = getelementptr inbounds nuw i8, ptr %13, i64 %14
  %16 = getelementptr inbounds nuw i8, ptr %0, i64 72
  store i64 0, ptr %16, align 8, !tbaa !16
  %17 = getelementptr inbounds nuw i8, ptr %15, i64 1
  %.not17 = icmp eq ptr %17, %12
  br i1 %.not17, label %._crit_edge, label %.lr.ph

.lr.ph:                                           ; preds = %11, %.backedge
  %.018 = phi ptr [ %.0.be, %.backedge ], [ %17, %11 ]
  %18 = phi i64 [ %22, %.backedge ], [ 0, %11 ]
  %19 = load i8, ptr %.018, align 1, !tbaa !9
  switch i8 %19, label %20 [
    i8 47, label %._crit_edge
    i8 37, label %23
  ]

20:                                               ; preds = %.lr.ph
  %21 = getelementptr inbounds nuw i8, ptr %.018, i64 1
  br label %.backedge

.backedge:                                        ; preds = %20, %23
  %22 = phi i64 [ %18, %20 ], [ %25, %23 ]
  %.0.be = phi ptr [ %21, %20 ], [ %24, %23 ]
  %.not = icmp eq ptr %.0.be, %12
  br i1 %.not, label %._crit_edge, label %.lr.ph, !llvm.loop !21

23:                                               ; preds = %.lr.ph
  %24 = getelementptr inbounds i8, ptr %.018, i64 3
  %25 = add i64 %18, 2
  store i64 %25, ptr %16, align 8, !tbaa !16
  br label %.backedge

._crit_edge:                                      ; preds = %.backedge, %.lr.ph, %11
  %.0.lcssa = phi ptr [ %12, %11 ], [ %.018, %.lr.ph ], [ %12, %.backedge ]
  %26 = tail call noundef ptr @_ZNK5boost4urls6detail8path_ref4dataEv(ptr noundef nonnull align 8 dereferenceable(40) %8) #8
  %27 = ptrtoint ptr %.0.lcssa to i64
  %28 = ptrtoint ptr %26 to i64
  %29 = sub i64 %27, %28
  store i64 %29, ptr %5, align 8, !tbaa !19
  %30 = ptrtoint ptr %17 to i64
  %31 = sub i64 %27, %30
  %32 = load i64, ptr %16, align 8, !tbaa !16
  %33 = sub i64 %31, %32
  store i64 %33, ptr %16, align 8, !tbaa !16
  %34 = getelementptr inbounds nuw i8, ptr %0, i64 80
  store ptr %17, ptr %34, align 8
  %.sroa.4.0..sroa_idx = getelementptr inbounds i8, ptr %0, i64 88
  store i64 %31, ptr %.sroa.4.0..sroa_idx, align 8
  %.sroa.5.0..sroa_idx = getelementptr inbounds i8, ptr %0, i64 96
  store i64 %33, ptr %.sroa.5.0..sroa_idx, align 8
  br label %35

35:                                               ; preds = %1, %._crit_edge
  ret void
}